target datalayout = "e-m:e-p270:32:32-p271:32:32-p272:64:64-i64:64-i128:128-f80:128-n8:16:32:64-S128"
target triple = "x86_64-pc-linux-gnu"

; Function Attrs: mustprogress nounwind uwtable
define hidden noundef i64 @_ZN4LIEF15vector_iostream12sleb128_sizeEl(i64 noundef %0) #0 align 2 {
  %2 = alloca i64, align 8
  %3 = alloca i64, align 8
  %4 = alloca i32, align 4
  %5 = alloca i8, align 1
  %6 = alloca i64, align 8
  store i64 %0, ptr %2, align 8, !tbaa !3
  call void @llvm.lifetime.start.p0(i64 8, ptr %3) #10
  store i64 0, ptr %3, align 8, !tbaa !3
  call void @llvm.lifetime.start.p0(i64 4, ptr %4) #10
  %7 = load i64, ptr %2, align 8, !tbaa !3
  %8 = ashr i64 %7, 63
  %9 = trunc i64 %8 to i32
  store i32 %9, ptr %4, align 4, !tbaa !9
  call void @llvm.lifetime.start.p0(i64 1, ptr %5) #10
  br label %10

10:                                               ; preds = %31, %1
  call void @llvm.lifetime.start.p0(i64 8, ptr %6) #10
  %11 = load i64, ptr %2, align 8, !tbaa !3
  %12 = and i64 %11, 127
  store i64 %12, ptr %6, align 8, !tbaa !3
  %13 = load i64, ptr %2, align 8, !tbaa !3
  %14 = ashr i64 %13, 7
  store i64 %14, ptr %2, align 8, !tbaa !3
  %15 = load i64, ptr %2, align 8, !tbaa !3
  %16 = load i32, ptr %4, align 4, !tbaa !9
  %17 = sext i32 %16 to i64
  %18 = icmp ne i64 %15, %17
  br i1 %18, label %26, label %19

19:                                               ; preds = %10
  %20 = load i64, ptr %6, align 8, !tbaa !3
  %21 = load i32, ptr %4, align 4, !tbaa !9
  %22 = sext i32 %21 to i64
  %23 = xor i64 %20, %22
  %24 = and i64 %23, 64
  %25 = icmp ne i64 %24, 0
  br label %26

26:                                               ; preds = %19, %10
  %27 = phi i1 [ true, %10 ], [ %25, %19 ]
  %28 = zext i1 %27 to i8
  store i8 %28, ptr %5, align 1, !tbaa !11
  %29 = load i64, ptr %3, align 8, !tbaa !3
  %30 = add i64 %29, 1
  store i64 %30, ptr %3, align 8, !tbaa !3
  call void @llvm.lifetime.end.p0(i64 8, ptr %6) #10
  br label %31

31:                                               ; preds = %26
  %32 = load i8, ptr %5, align 1, !tbaa !11, !range !13, !noundef !14
  %33 = trunc i8 %32 to i1
  br i1 %33, label %10, label %34, !llvm.loop !15

34:                                               ; preds = %31
  %35 = load i64, ptr %3, align 8, !tbaa !3
  call void @llvm.lifetime.end.p0(i64 1, ptr %5) #10
  call void @llvm.lifetime.end.p0(i64 4, ptr %4) #10
  call void @llvm.lifetime.end.p0(i64 8, ptr %3) #10
  ret i64 %35
}