; Function Attrs: mustprogress nofree norecurse nosync nounwind willreturn memory(none) uwtable
define hidden noundef i64 @_ZN4LIEF15vector_iostream12sleb128_sizeEl(i64 noundef %0) local_unnamed_addr #0 align 2 {
  %2 = ashr i64 %0, 63
  br label %3

3:                                                ; preds = %3, %1
  %.010 = phi i64 [ 0, %1 ], [ %9, %3 ]
  %.0 = phi i64 [ %0, %1 ], [ %4, %3 ]
  %4 = ashr i64 %.0, 7
  %.not = icmp ne i64 %4, %2
  %5 = xor i64 %.0, %2
  %6 = and i64 %5, 64
  %7 = icmp ne i64 %6, 0
  %8 = or i1 %.not, %7
  %9 = add i64 %.010, 1
  br i1 %8, label %3, label %10, !llvm.loop !5

10:                                               ; preds = %3
  ret i64 %9
}